target datalayout = "e-m:e-p270:32:32-p271:32:32-p272:64:64-i64:64-i128:128-f80:128-n8:16:32:64-S128"
target triple = "x86_64-unknown-linux-gnu"

%"class.FLAC::Metadata::Chain" = type { ptr, ptr }
%struct.FLAC__IOCallbacks = type { ptr, ptr, ptr, ptr, ptr, ptr }

; Function Attrs: mustprogress sspstrong uwtable
define noundef zeroext i1 @_ZN4FLAC8Metadata5Chain5writeEbPv17FLAC__IOCallbacksS2_S3_(ptr noundef nonnull align 8 dereferenceable(16) %this, i1 noundef zeroext %use_padding, ptr noundef %handle, ptr noundef byval(%struct.FLAC__IOCallbacks) align 8 %callbacks, ptr noundef %temp_handle, ptr noundef byval(%struct.FLAC__IOCallbacks) align 8 %temp_callbacks) #0 align 2 {
entry:
  %this.addr = alloca ptr, align 8
  %use_padding.addr = alloca i8, align 1
  %handle.addr = alloca ptr, align 8
  %temp_handle.addr = alloca ptr, align 8
  %agg.tmp = alloca %struct.FLAC__IOCallbacks, align 8
  %agg.tmp2 = alloca %struct.FLAC__IOCallbacks, align 8
  store ptr %this, ptr %this.addr, align 8
  %frombool = zext i1 %use_padding to i8
  store i8 %frombool, ptr %use_padding.addr, align 1
  store ptr %handle, ptr %handle.addr, align 8
  store ptr %temp_handle, ptr %temp_handle.addr, align 8
  %this1 = load ptr, ptr %this.addr, align 8
  %chain_ = getelementptr inbounds %"class.FLAC::Metadata::Chain", ptr %this1, i32 0, i32 1
  %0 = load ptr, ptr %chain_, align 8
  %1 = load i8, ptr %use_padding.addr, align 1
  %tobool = trunc i8 %1 to i1
  %conv = zext i1 %tobool to i32
  %2 = load ptr, ptr %handle.addr, align 8
  call void @llvm.memcpy.p0.p0.i64(ptr align 8 %agg.tmp, ptr align 8 %callbacks, i64 48, i1 false)
  %3 = load ptr, ptr %temp_handle.addr, align 8
  call void @llvm.memcpy.p0.p0.i64(ptr align 8 %agg.tmp2, ptr align 8 %temp_callbacks, i64 48, i1 false)
  %call = call i32 @FLAC__metadata_chain_write_with_callbacks_and_tempfile(ptr noundef %0, i32 noundef %conv, ptr noundef %2, ptr noundef byval(%struct.FLAC__IOCallbacks) align 8 %agg.tmp, ptr noundef %3, ptr noundef byval(%struct.FLAC__IOCallbacks) align 8 %agg.tmp2)
  %tobool3 = icmp ne i32 %call, 0
  ret i1 %tobool3
}