; Function Attrs: mustprogress sspstrong uwtable
define noundef zeroext i1 @_ZN4FLAC8Metadata5Chain5writeEbPv17FLAC__IOCallbacksS2_S3_(ptr nocapture noundef nonnull readonly align 8 dereferenceable(16) %this, i1 noundef zeroext %use_padding, ptr noundef %handle, ptr nocapture noundef readonly byval(%struct.FLAC__IOCallbacks) align 8 %callbacks, ptr noundef %temp_handle, ptr nocapture noundef readonly byval(%struct.FLAC__IOCallbacks) align 8 %temp_callbacks) local_unnamed_addr #0 align 2 {
entry:
  %chain_ = getelementptr inbounds i8, ptr %this, i64 8
  %0 = load ptr, ptr %chain_, align 8
  %conv = zext i1 %use_padding to i32
  %call = tail call i32 @FLAC__metadata_chain_write_with_callbacks_and_tempfile(ptr noundef %0, i32 noundef %conv, ptr noundef %handle, ptr noundef nonnull byval(%struct.FLAC__IOCallbacks) align 8 %callbacks, ptr noundef %temp_handle, ptr noundef nonnull byval(%struct.FLAC__IOCallbacks) align 8 %temp_callbacks)
  %tobool3 = icmp ne i32 %call, 0
  ret i1 %tobool3
}